target datalayout = "e-m:e-p270:32:32-p271:32:32-p272:64:64-i64:64-i128:128-f80:128-n8:16:32:64-S128"
target triple = "x86_64-pc-linux-gnu"

%struct.SDL_GPUDevice = type { ptr, ptr, ptr, ptr, ptr, ptr, ptr, ptr, ptr, ptr, ptr, ptr, ptr, ptr, ptr, ptr, ptr, ptr, ptr, ptr, ptr, ptr, ptr, ptr, ptr, ptr, ptr, ptr, ptr, ptr, ptr, ptr, ptr, ptr, ptr, ptr, ptr, ptr, ptr, ptr, ptr, ptr, ptr, ptr, ptr, ptr, ptr, ptr, ptr, ptr, ptr, ptr, ptr, ptr, ptr, ptr, ptr, ptr, ptr, ptr, ptr, ptr, ptr, ptr, ptr, ptr, ptr, ptr, ptr, ptr, ptr, ptr, ptr, ptr, ptr, ptr, ptr, ptr, ptr, ptr, ptr, ptr, ptr, ptr, ptr, i32, i8 }

@.str.3 = private unnamed_addr constant [19 x i8] c"Invalid GPU device\00", align 1

; Function Attrs: nounwind uwtable
define hidden void @SDL_ReleaseGPUGraphicsPipeline_REAL(ptr noundef %0, ptr noundef %1) #0 {
  %3 = alloca ptr, align 8
  %4 = alloca ptr, align 8
  store ptr %0, ptr %3, align 8
  store ptr %1, ptr %4, align 8
  %5 = load ptr, ptr %3, align 8
  %6 = icmp eq ptr %5, null
  br i1 %6, label %7, label %9

7:                                                ; preds = %2
  %8 = call zeroext i1 (ptr, ...) @SDL_SetError_REAL(ptr noundef @.str.3)
  br label %21

9:                                                ; preds = %2
  %10 = load ptr, ptr %4, align 8
  %11 = icmp eq ptr %10, null
  br i1 %11, label %12, label %13

12:                                               ; preds = %9
  br label %21

13:                                               ; preds = %9
  %14 = load ptr, ptr %3, align 8
  %15 = getelementptr inbounds nuw %struct.SDL_GPUDevice, ptr %14, i32 0, i32 20
  %16 = load ptr, ptr %15, align 8
  %17 = load ptr, ptr %3, align 8
  %18 = getelementptr inbounds nuw %struct.SDL_GPUDevice, ptr %17, i32 0, i32 83
  %19 = load ptr, ptr %18, align 8
  %20 = load ptr, ptr %4, align 8
  call void %16(ptr noundef %19, ptr noundef %20)
  br label %21

21:                                               ; preds = %13, %12, %7
  ret void
}